target datalayout = "e-m:e-p270:32:32-p271:32:32-p272:64:64-i64:64-i128:128-f80:128-n8:16:32:64-S128"
target triple = "x86_64-pc-linux-gnu"

%struct.If_Man_t_ = type { ptr, ptr, ptr, ptr, ptr, ptr, ptr, ptr, [5 x i32], i32, float, float, float, float, i32, float, i32, i32, [4 x ptr], ptr, i32, i32, i32, ptr, [3 x [32 x i32]], i32, i32, i32, ptr, ptr, ptr, ptr, ptr, ptr, ptr, i32, i32, i32, [16 x i32], i32, i32, i32, i32, ptr, ptr, ptr, ptr, ptr, i32, i32, [32 x i32], [32 x i32], i32, i32, i32, i32, ptr, [16 x ptr], [16 x ptr], [16 x ptr], [16 x ptr], [16 x ptr], [16 x ptr], [16 x ptr], ptr, ptr, ptr, ptr, [32 x i8], i32, i32, i32, [6 x i64], [2 x i32], [2 x i32], ptr, [15 x i32], ptr, ptr, ptr, [16 x i32], ptr, ptr, ptr, ptr, [2 x i32], [2 x i32], [2 x ptr], ptr }
%struct.If_Cut_t_ = type <{ float, float, float, float, i32, i32, i32, i48, [0 x i32] }>
%struct.If_Par_t_ = type { i32, i32, i32, i32, i32, i32, float, float, i32, i32, i32, i32, i32, i32, i32, i32, i32, i32, i32, i32, i32, i32, i32, i32, i32, i32, i32, i32, i32, i32, i32, i32, i32, i32, i32, i32, i32, i32, i32, i32, i32, i32, i32, i32, i32, i32, i32, i32, i32, ptr, float, i32, i32, i32, i32, i32, i32, i32, i32, i32, i32, i32, i32, i32, i32, float, float, float, ptr, ptr, ptr, ptr, ptr, ptr, ptr, ptr, ptr }
%struct.If_Obj_t_ = type { i32, i32, i32, i32, i32, i32, ptr, ptr, ptr, float, float, float, %union.anon, ptr, %struct.If_Cut_t_ }
%union.anon = type { ptr }
%struct.Vec_Ptr_t_ = type { i32, i32, ptr }
%struct.Vec_Str_t_ = type { i32, i32, ptr }

; Function Attrs: nounwind uwtable
define internal ptr @Vec_PtrEntry(ptr noundef %0, i32 noundef %1) #0 {
  %3 = alloca ptr, align 8
  %4 = alloca i32, align 4
  store ptr %0, ptr %3, align 8
  store i32 %1, ptr %4, align 4
  %5 = load ptr, ptr %3, align 8
  %6 = getelementptr inbounds %struct.Vec_Ptr_t_, ptr %5, i32 0, i32 2
  %7 = load ptr, ptr %6, align 8
  %8 = load i32, ptr %4, align 4
  %9 = sext i32 %8 to i64
  %10 = getelementptr inbounds ptr, ptr %7, i64 %9
  %11 = load ptr, ptr %10, align 8
  ret ptr %11
}

; Function Attrs: nounwind uwtable
define internal ptr @Vec_StrEntryP(ptr noundef %0, i32 noundef %1) #0 {
  %3 = alloca ptr, align 8
  %4 = alloca i32, align 4
  store ptr %0, ptr %3, align 8
  store i32 %1, ptr %4, align 4
  %5 = load ptr, ptr %3, align 8
  %6 = getelementptr inbounds %struct.Vec_Str_t_, ptr %5, i32 0, i32 2
  %7 = load ptr, ptr %6, align 8
  %8 = load i32, ptr %4, align 4
  %9 = sext i32 %8 to i64
  %10 = getelementptr inbounds i8, ptr %7, i64 %9
  ret ptr %10
}

; Function Attrs: nounwind uwtable
define internal ptr @If_ManObj(ptr noundef %0, i32 noundef %1) #0 {
  %3 = alloca ptr, align 8
  %4 = alloca i32, align 4
  store ptr %0, ptr %3, align 8
  store i32 %1, ptr %4, align 4
  %5 = load ptr, ptr %3, align 8
  %6 = getelementptr inbounds %struct.If_Man_t_, ptr %5, i32 0, i32 5
  %7 = load ptr, ptr %6, align 8
  %8 = load i32, ptr %4, align 4
  %9 = call ptr @Vec_PtrEntry(ptr noundef %7, i32 noundef %8)
  ret ptr %9
}

; Function Attrs: nounwind uwtable
define internal i32 @Abc_MaxInt(i32 noundef %0, i32 noundef %1) #0 {
  %3 = alloca i32, align 4
  %4 = alloca i32, align 4
  store i32 %0, ptr %3, align 4
  store i32 %1, ptr %4, align 4
  %5 = load i32, ptr %3, align 4
  %6 = load i32, ptr %4, align 4
  %7 = icmp sgt i32 %5, %6
  br i1 %7, label %8, label %10

8:                                                ; preds = %2
  %9 = load i32, ptr %3, align 4
  br label %12

10:                                               ; preds = %2
  %11 = load i32, ptr %4, align 4
  br label %12

12:                                               ; preds = %10, %8
  %13 = phi i32 [ %9, %8 ], [ %11, %10 ]
  ret i32 %13
}

; Function Attrs: nounwind uwtable
define internal i32 @Abc_Lit2Var(i32 noundef %0) #0 {
  %2 = alloca i32, align 4
  store i32 %0, ptr %2, align 4
  %3 = load i32, ptr %2, align 4
  %4 = ashr i32 %3, 1
  ret i32 %4
}

; Function Attrs: nounwind uwtable
define internal i32 @If_CutLeaveNum(ptr noundef %0) #0 {
  %2 = alloca ptr, align 8
  store ptr %0, ptr %2, align 8
  %3 = load ptr, ptr %2, align 8
  %4 = getelementptr inbounds %struct.If_Cut_t_, ptr %3, i32 0, i32 7
  %5 = load i64, ptr %4, align 4
  %6 = lshr i64 %5, 24
  %7 = and i64 %6, 255
  %8 = trunc i64 %7 to i32
  ret i32 %8
}

; Function Attrs: nounwind uwtable
define internal ptr @If_CutDsdPerm(ptr noundef %0, ptr noundef %1) #0 {
  %3 = alloca ptr, align 8
  %4 = alloca ptr, align 8
  store ptr %0, ptr %3, align 8
  store ptr %1, ptr %4, align 8
  %5 = load ptr, ptr %3, align 8
  %6 = getelementptr inbounds %struct.If_Man_t_, ptr %5, i32 0, i32 60
  %7 = load ptr, ptr %4, align 8
  %8 = getelementptr inbounds %struct.If_Cut_t_, ptr %7, i32 0, i32 7
  %9 = load i64, ptr %8, align 4
  %10 = lshr i64 %9, 24
  %11 = and i64 %10, 255
  %12 = trunc i64 %11 to i32
  %13 = zext i32 %12 to i64
  %14 = getelementptr inbounds [16 x ptr], ptr %6, i64 0, i64 %13
  %15 = load ptr, ptr %14, align 8
  %16 = load ptr, ptr %4, align 8
  %17 = getelementptr inbounds %struct.If_Cut_t_, ptr %16, i32 0, i32 4
  %18 = load i32, ptr %17, align 4
  %19 = call i32 @Abc_Lit2Var(i32 noundef %18)
  %20 = load ptr, ptr %4, align 8
  %21 = getelementptr inbounds %struct.If_Cut_t_, ptr %20, i32 0, i32 7
  %22 = load i64, ptr %21, align 4
  %23 = lshr i64 %22, 24
  %24 = and i64 %23, 255
  %25 = trunc i64 %24 to i32
  %26 = call i32 @Abc_MaxInt(i32 noundef 6, i32 noundef %25)
  %27 = mul nsw i32 %19, %26
  %28 = call ptr @Vec_StrEntryP(ptr noundef %15, i32 noundef %27)
  ret ptr %28
}

; Function Attrs: nounwind uwtable
define internal ptr @If_ObjCutBest(ptr noundef %0) #0 {
  %2 = alloca ptr, align 8
  store ptr %0, ptr %2, align 8
  %3 = load ptr, ptr %2, align 8
  %4 = getelementptr inbounds %struct.If_Obj_t_, ptr %3, i32 0, i32 14
  ret ptr %4
}

; Function Attrs: nounwind uwtable
define internal ptr @If_CutLeaf(ptr noundef %0, ptr noundef %1, i32 noundef %2) #0 {
  %4 = alloca ptr, align 8
  %5 = alloca ptr, align 8
  %6 = alloca i32, align 4
  store ptr %0, ptr %4, align 8
  store ptr %1, ptr %5, align 8
  store i32 %2, ptr %6, align 4
  %7 = load ptr, ptr %4, align 8
  %8 = load ptr, ptr %5, align 8
  %9 = getelementptr inbounds %struct.If_Cut_t_, ptr %8, i32 0, i32 8
  %10 = load i32, ptr %6, align 4
  %11 = sext i32 %10 to i64
  %12 = getelementptr inbounds [0 x i32], ptr %9, i64 0, i64 %11
  %13 = load i32, ptr %12, align 4
  %14 = call ptr @If_ManObj(ptr noundef %7, i32 noundef %13)
  ret ptr %14
}

; Function Attrs: nounwind uwtable
define i32 @If_CutLutBalancePinDelays(ptr noundef %0, ptr noundef %1, ptr noundef %2) #0 {
  %4 = alloca i32, align 4
  %5 = alloca ptr, align 8
  %6 = alloca ptr, align 8
  %7 = alloca ptr, align 8
  %8 = alloca ptr, align 8
  %9 = alloca i32, align 4
  %10 = alloca i32, align 4
  %11 = alloca i32, align 4
  %12 = alloca i32, align 4
  store ptr %0, ptr %5, align 8
  store ptr %1, ptr %6, align 8
  store ptr %2, ptr %7, align 8
  %13 = load ptr, ptr %6, align 8
  %14 = getelementptr inbounds %struct.If_Cut_t_, ptr %13, i32 0, i32 7
  %15 = load i64, ptr %14, align 4
  %16 = lshr i64 %15, 24
  %17 = and i64 %16, 255
  %18 = trunc i64 %17 to i32
  %19 = icmp eq i32 %18, 0
  br i1 %19, label %20, label %21

20:                                               ; preds = %3
  store i32 0, ptr %4, align 4
  br label %127

21:                                               ; preds = %3
  %22 = load ptr, ptr %6, align 8
  %23 = getelementptr inbounds %struct.If_Cut_t_, ptr %22, i32 0, i32 7
  %24 = load i64, ptr %23, align 4
  %25 = lshr i64 %24, 24
  %26 = and i64 %25, 255
  %27 = trunc i64 %26 to i32
  %28 = icmp eq i32 %27, 1
  br i1 %28, label %29, label %39

29:                                               ; preds = %21
  %30 = load ptr, ptr %7, align 8
  %31 = getelementptr inbounds i8, ptr %30, i64 0
  store i8 0, ptr %31, align 1
  %32 = load ptr, ptr %5, align 8
  %33 = load ptr, ptr %6, align 8
  %34 = call ptr @If_CutLeaf(ptr noundef %32, ptr noundef %33, i32 noundef 0)
  %35 = call ptr @If_ObjCutBest(ptr noundef %34)
  %36 = getelementptr inbounds %struct.If_Cut_t_, ptr %35, i32 0, i32 3
  %37 = load float, ptr %36, align 4
  %38 = fptosi float %37 to i32
  store i32 %38, ptr %4, align 4
  br label %127

39:                                               ; preds = %21
  %40 = load ptr, ptr %5, align 8
  %41 = load ptr, ptr %6, align 8
  %42 = call ptr @If_CutDsdPerm(ptr noundef %40, ptr noundef %41)
  store ptr %42, ptr %8, align 8
  %43 = load ptr, ptr %5, align 8
  %44 = getelementptr inbounds %struct.If_Man_t_, ptr %43, i32 0, i32 1
  %45 = load ptr, ptr %44, align 8
  %46 = getelementptr inbounds %struct.If_Par_t_, ptr %45, i32 0, i32 49
  %47 = load ptr, ptr %46, align 8
  %48 = getelementptr inbounds i8, ptr %47, i64 0
  %49 = load i8, ptr %48, align 1
  %50 = sext i8 %49 to i32
  %51 = sub nsw i32 %50, 48
  store i32 %51, ptr %9, align 4
  store i32 -1, ptr %12, align 4
  store i32 0, ptr %10, align 4
  br label %52

52:                                               ; preds = %94, %39
  %53 = load i32, ptr %10, align 4
  %54 = load ptr, ptr %6, align 8
  %55 = call i32 @If_CutLeaveNum(ptr noundef %54)
  %56 = icmp slt i32 %53, %55
  br i1 %56, label %57, label %97

57:                                               ; preds = %52
  %58 = load ptr, ptr %6, align 8
  %59 = call i32 @If_CutLeaveNum(ptr noundef %58)
  %60 = load i32, ptr %9, align 4
  %61 = icmp sgt i32 %59, %60
  br i1 %61, label %62, label %82

62:                                               ; preds = %57
  %63 = load ptr, ptr %6, align 8
  %64 = getelementptr inbounds %struct.If_Cut_t_, ptr %63, i32 0, i32 5
  %65 = load i32, ptr %64, align 4
  %66 = load i32, ptr %10, align 4
  %67 = shl i32 %66, 1
  %68 = ashr i32 %65, %67
  %69 = and i32 %68, 1
  %70 = icmp ne i32 %69, 0
  br i1 %70, label %71, label %82

71:                                               ; preds = %62
  %72 = load ptr, ptr %7, align 8
  %73 = load ptr, ptr %8, align 8
  %74 = load i32, ptr %10, align 4
  %75 = sext i32 %74 to i64
  %76 = getelementptr inbounds i8, ptr %73, i64 %75
  %77 = load i8, ptr %76, align 1
  %78 = sext i8 %77 to i32
  %79 = call i32 @Abc_Lit2Var(i32 noundef %78)
  %80 = sext i32 %79 to i64
  %81 = getelementptr inbounds i8, ptr %72, i64 %80
  store i8 2, ptr %81, align 1
  br label %93

82:                                               ; preds = %62, %57
  %83 = load ptr, ptr %7, align 8
  %84 = load ptr, ptr %8, align 8
  %85 = load i32, ptr %10, align 4
  %86 = sext i32 %85 to i64
  %87 = getelementptr inbounds i8, ptr %84, i64 %86
  %88 = load i8, ptr %87, align 1
  %89 = sext i8 %88 to i32
  %90 = call i32 @Abc_Lit2Var(i32 noundef %89)
  %91 = sext i32 %90 to i64
  %92 = getelementptr inbounds i8, ptr %83, i64 %91
  store i8 1, ptr %92, align 1
  br label %93

93:                                               ; preds = %82, %71
  br label %94

94:                                               ; preds = %93
  %95 = load i32, ptr %10, align 4
  %96 = add nsw i32 %95, 1
  store i32 %96, ptr %10, align 4
  br label %52, !llvm.loop !34

97:                                               ; preds = %52
  store i32 0, ptr %10, align 4
  br label %98

98:                                               ; preds = %122, %97
  %99 = load i32, ptr %10, align 4
  %100 = load ptr, ptr %6, align 8
  %101 = call i32 @If_CutLeaveNum(ptr noundef %100)
  %102 = icmp slt i32 %99, %101
  br i1 %102, label %103, label %125

103:                                              ; preds = %98
  %104 = load ptr, ptr %5, align 8
  %105 = load ptr, ptr %6, align 8
  %106 = load i32, ptr %10, align 4
  %107 = call ptr @If_CutLeaf(ptr noundef %104, ptr noundef %105, i32 noundef %106)
  %108 = call ptr @If_ObjCutBest(ptr noundef %107)
  %109 = getelementptr inbounds %struct.If_Cut_t_, ptr %108, i32 0, i32 3
  %110 = load float, ptr %109, align 4
  %111 = fptosi float %110 to i32
  store i32 %111, ptr %11, align 4
  %112 = load i32, ptr %12, align 4
  %113 = load i32, ptr %11, align 4
  %114 = load ptr, ptr %7, align 8
  %115 = load i32, ptr %10, align 4
  %116 = sext i32 %115 to i64
  %117 = getelementptr inbounds i8, ptr %114, i64 %116
  %118 = load i8, ptr %117, align 1
  %119 = sext i8 %118 to i32
  %120 = add nsw i32 %113, %119
  %121 = call i32 @Abc_MaxInt(i32 noundef %112, i32 noundef %120)
  store i32 %121, ptr %12, align 4
  br label %122

122:                                              ; preds = %103
  %123 = load i32, ptr %10, align 4
  %124 = add nsw i32 %123, 1
  store i32 %124, ptr %10, align 4
  br label %98, !llvm.loop !35

125:                                              ; preds = %98
  %126 = load i32, ptr %12, align 4
  store i32 %126, ptr %4, align 4
  br label %127

127:                                              ; preds = %125, %29, %20
  %128 = load i32, ptr %4, align 4
  ret i32 %128
}