; Function Attrs: nofree norecurse nosync nounwind memory(read, argmem: readwrite, inaccessiblemem: none) uwtable
define i32 @If_CutLutBalancePinDelays(ptr noundef readonly captures(none) %0, ptr noundef readonly captures(none) %1, ptr noundef captures(none) %2) local_unnamed_addr #0 {
  %4 = getelementptr inbounds nuw i8, ptr %1, i64 28
  %5 = load i64, ptr %4, align 4
  %6 = trunc i64 %5 to i32
  %7 = icmp ult i32 %6, 16777216
  br i1 %7, label %.loopexit, label %8

8:                                                ; preds = %3
  %.mask = and i32 %6, -16777216
  %9 = icmp eq i32 %.mask, 16777216
  br i1 %9, label %10, label %.lr.ph

10:                                               ; preds = %8
  store i8 0, ptr %2, align 1
  %11 = getelementptr i8, ptr %0, i64 40
  %.val35 = load ptr, ptr %11, align 8
  %12 = getelementptr i8, ptr %.val35, i64 8
  %.val35.val = load ptr, ptr %12, align 8
  %13 = getelementptr inbounds nuw i8, ptr %1, i64 36
  %14 = load i32, ptr %13, align 4
  %15 = sext i32 %14 to i64
  %16 = getelementptr inbounds ptr, ptr %.val35.val, i64 %15
  %17 = load ptr, ptr %16, align 8
  %18 = getelementptr inbounds nuw i8, ptr %17, i64 92
  %19 = load float, ptr %18, align 4
  %20 = fptosi float %19 to i32
  br label %.loopexit

.lr.ph:                                           ; preds = %8
  %21 = getelementptr i8, ptr %1, i64 16
  %.val39 = load i32, ptr %21, align 4
  %22 = getelementptr inbounds nuw i8, ptr %0, i64 1448
  %23 = lshr i64 %5, 24
  %24 = and i64 %23, 255
  %25 = getelementptr inbounds nuw [16 x ptr], ptr %22, i64 0, i64 %24
  %26 = load ptr, ptr %25, align 8
  %27 = ashr i32 %.val39, 1
  %28 = lshr i32 %6, 24
  %29 = tail call i32 @llvm.umax.i32(i32 %28, i32 6)
  %30 = mul nsw i32 %27, %29
  %31 = getelementptr i8, ptr %26, i64 8
  %.val.i = load ptr, ptr %31, align 8
  %32 = sext i32 %30 to i64
  %33 = getelementptr inbounds i8, ptr %.val.i, i64 %32
  %34 = getelementptr inbounds nuw i8, ptr %0, i64 8
  %35 = load ptr, ptr %34, align 8
  %36 = getelementptr inbounds nuw i8, ptr %35, i64 200
  %37 = load ptr, ptr %36, align 8
  %38 = load i8, ptr %37, align 1
  %39 = sext i8 %38 to i32
  %40 = add nsw i32 %39, -48
  %41 = getelementptr inbounds nuw i8, ptr %1, i64 20
  br label %45

.preheader:                                       ; preds = %54
  %.not48 = icmp ult i32 %60, 16777216
  br i1 %.not48, label %.loopexit, label %.lr.ph45

.lr.ph45:                                         ; preds = %.preheader
  %42 = getelementptr i8, ptr %0, i64 40
  %.val = load ptr, ptr %42, align 8
  %43 = getelementptr i8, ptr %.val, i64 8
  %.val.val = load ptr, ptr %43, align 8
  %44 = getelementptr inbounds nuw i8, ptr %1, i64 36
  %wide.trip.count = zext nneg i32 %61 to i64
  br label %64

45:                                               ; preds = %.lr.ph, %54
  %indvars.iv = phi i64 [ 0, %.lr.ph ], [ %indvars.iv.next, %54 ]
  %46 = phi i32 [ %28, %.lr.ph ], [ %61, %54 ]
  %47 = icmp sgt i32 %46, %40
  br i1 %47, label %48, label %53

48:                                               ; preds = %45
  %49 = load i32, ptr %41, align 4
  %indvars.iv.tr = trunc i64 %indvars.iv to i32
  %50 = shl nuw nsw i32 %indvars.iv.tr, 1
  %51 = shl nuw i32 1, %50
  %52 = and i32 %49, %51
  %.not = icmp eq i32 %52, 0
  br i1 %.not, label %53, label %54

53:                                               ; preds = %48, %45
  br label %54

54:                                               ; preds = %48, %53
  %.sink = phi i8 [ 1, %53 ], [ 2, %48 ]
  %55 = getelementptr inbounds nuw i8, ptr %33, i64 %indvars.iv
  %56 = load i8, ptr %55, align 1
  %57 = ashr i8 %56, 1
  %58 = sext i8 %57 to i64
  %59 = getelementptr inbounds i8, ptr %2, i64 %58
  store i8 %.sink, ptr %59, align 1
  %indvars.iv.next = add nuw nsw i64 %indvars.iv, 1
  %.val38 = load i64, ptr %4, align 4
  %60 = trunc i64 %.val38 to i32
  %61 = lshr i32 %60, 24
  %62 = zext nneg i32 %61 to i64
  %63 = icmp samesign ult i64 %indvars.iv.next, %62
  br i1 %63, label %45, label %.preheader, !llvm.loop !25

64:                                               ; preds = %.lr.ph45, %64
  %indvars.iv52 = phi i64 [ 0, %.lr.ph45 ], [ %indvars.iv.next53, %64 ]
  %.044 = phi i32 [ -1, %.lr.ph45 ], [ %77, %64 ]
  %65 = getelementptr inbounds nuw [0 x i32], ptr %44, i64 0, i64 %indvars.iv52
  %66 = load i32, ptr %65, align 4
  %67 = sext i32 %66 to i64
  %68 = getelementptr inbounds ptr, ptr %.val.val, i64 %67
  %69 = load ptr, ptr %68, align 8
  %70 = getelementptr inbounds nuw i8, ptr %69, i64 92
  %71 = load float, ptr %70, align 4
  %72 = fptosi float %71 to i32
  %73 = getelementptr inbounds nuw i8, ptr %2, i64 %indvars.iv52
  %74 = load i8, ptr %73, align 1
  %75 = sext i8 %74 to i32
  %76 = add nsw i32 %75, %72
  %77 = tail call noundef i32 @llvm.smax.i32(i32 %.044, i32 %76)
  %indvars.iv.next53 = add nuw nsw i64 %indvars.iv52, 1
  %exitcond.not = icmp eq i64 %indvars.iv.next53, %wide.trip.count
  br i1 %exitcond.not, label %.loopexit, label %64, !llvm.loop !26

.loopexit:                                        ; preds = %64, %.preheader, %3, %10
  %.032 = phi i32 [ %20, %10 ], [ 0, %3 ], [ -1, %.preheader ], [ %77, %64 ]
  ret i32 %.032
}